; Function Attrs: nounwind uwtable
define internal fastcc void @_jumbleCreateCastStmt(ptr noundef %0, ptr noundef nonnull readonly captures(none) %1) unnamed_addr #0 {
  %3 = getelementptr inbounds nuw i8, ptr %1, i64 8
  %4 = load ptr, ptr %3, align 8
  tail call fastcc void @_jumbleNode(ptr noundef %0, ptr noundef %4)
  %5 = getelementptr inbounds nuw i8, ptr %1, i64 16
  %6 = load ptr, ptr %5, align 8
  tail call fastcc void @_jumbleNode(ptr noundef %0, ptr noundef %6)
  %7 = getelementptr inbounds nuw i8, ptr %1, i64 24
  %8 = load ptr, ptr %7, align 8
  tail call fastcc void @_jumbleNode(ptr noundef %0, ptr noundef %8)
  %9 = getelementptr inbounds nuw i8, ptr %1, i64 32
  %10 = load ptr, ptr %0, align 8
  %11 = getelementptr inbounds nuw i8, ptr %0, i64 8
  %12 = load i64, ptr %11, align 8
  br label %.lr.ph.i

.lr.ph.i:                                         ; preds = %16, %2
  %.026.i = phi ptr [ %21, %16 ], [ %9, %2 ]
  %.02125.i = phi i64 [ %22, %16 ], [ 4, %2 ]
  %.02224.i = phi i64 [ %20, %16 ], [ %12, %2 ]
  %13 = icmp ugt i64 %.02224.i, 1023
  br i1 %13, label %14, label %16

14:                                               ; preds = %.lr.ph.i
  %15 = tail call i64 @hash_bytes_extended(ptr noundef %10, i32 noundef 1024, i64 noundef 0) #9
  store i64 %15, ptr %10, align 1
  br label %16

16:                                               ; preds = %14, %.lr.ph.i
  %.1.i = phi i64 [ 8, %14 ], [ %.02224.i, %.lr.ph.i ]
  %17 = sub nuw nsw i64 1024, %.1.i
  %18 = tail call i64 @llvm.umin.i64(i64 %.02125.i, i64 %17)
  %19 = getelementptr inbounds nuw i8, ptr %10, i64 %.1.i
  tail call void @llvm.memcpy.p0.p0.i64(ptr noundef nonnull align 1 dereferenceable(1) %19, ptr noundef nonnull align 1 dereferenceable(1) %.026.i, i64 %18, i1 false)
  %20 = add nuw nsw i64 %18, %.1.i
  %21 = getelementptr inbounds nuw i8, ptr %.026.i, i64 %18
  %22 = sub i64 %.02125.i, %18
  %.not.i = icmp eq i64 %22, 0
  br i1 %.not.i, label %AppendJumble.exit, label %.lr.ph.i, !llvm.loop !7

AppendJumble.exit:                                ; preds = %16
  store i64 %20, ptr %11, align 8
  %23 = getelementptr inbounds nuw i8, ptr %1, i64 36
  %24 = load ptr, ptr %0, align 8
  br label %.lr.ph.i11

.lr.ph.i11:                                       ; preds = %28, %AppendJumble.exit
  %.026.i12 = phi ptr [ %33, %28 ], [ %23, %AppendJumble.exit ]
  %.02125.i13 = phi i64 [ %34, %28 ], [ 1, %AppendJumble.exit ]
  %.02224.i14 = phi i64 [ %32, %28 ], [ %20, %AppendJumble.exit ]
  %25 = icmp ugt i64 %.02224.i14, 1023
  br i1 %25, label %26, label %28

26:                                               ; preds = %.lr.ph.i11
  %27 = tail call i64 @hash_bytes_extended(ptr noundef %24, i32 noundef 1024, i64 noundef 0) #9
  store i64 %27, ptr %24, align 1
  br label %28

28:                                               ; preds = %26, %.lr.ph.i11
  %.1.i15 = phi i64 [ 8, %26 ], [ %.02224.i14, %.lr.ph.i11 ]
  %29 = sub nuw nsw i64 1024, %.1.i15
  %30 = tail call i64 @llvm.umin.i64(i64 %.02125.i13, i64 %29)
  %31 = getelementptr inbounds nuw i8, ptr %24, i64 %.1.i15
  tail call void @llvm.memcpy.p0.p0.i64(ptr noundef nonnull align 1 dereferenceable(1) %31, ptr noundef nonnull align 1 dereferenceable(1) %.026.i12, i64 %30, i1 false)
  %32 = add nuw nsw i64 %30, %.1.i15
  %33 = getelementptr inbounds nuw i8, ptr %.026.i12, i64 %30
  %34 = sub i64 %.02125.i13, %30
  %.not.i16 = icmp eq i64 %34, 0
  br i1 %.not.i16, label %AppendJumble.exit17, label %.lr.ph.i11, !llvm.loop !7

AppendJumble.exit17:                              ; preds = %28
  store i64 %32, ptr %11, align 8
  ret void
}